; ModuleID = '14/969.c'
source_filename = "14/969.c"
target datalayout = "e-m:e-p270:32:32-p271:32:32-p272:64:64-i64:64-f80:128-n8:16:32:64-S128"
target triple = "x86_64-pc-linux-gnu"

%struct.student = type { i64, i32, i32, i32, %struct.student* }

@.str = private unnamed_addr constant [4 x i8] c"%ld\00", align 1
@n = common dso_local global i64 0, align 8
@.str.1 = private unnamed_addr constant [7 x i8] c"%d %d\0A\00", align 1
@.str.2 = private unnamed_addr constant [8 x i8] c"%ld%d%d\00", align 1

; Function Attrs: noinline nounwind uwtable
define dso_local void @main() #0 {
  %1 = alloca %struct.student*, align 8
  %2 = alloca %struct.student*, align 8
  %3 = alloca %struct.student*, align 8
  %4 = alloca %struct.student*, align 8
  %5 = alloca %struct.student*, align 8
  %6 = alloca i32, align 4
  %7 = call i32 (i8*, ...) @__isoc99_scanf(i8* getelementptr inbounds ([4 x i8], [4 x i8]* @.str, i64 0, i64 0), i64* @n)
  %8 = call %struct.student* @creat()
  store %struct.student* %8, %struct.student** %1, align 8
  %9 = load %struct.student*, %struct.student** %1, align 8
  store %struct.student* %9, %struct.student** %2, align 8
  store i32 0, i32* %6, align 4
  br label %10

10:                                               ; preds = %24, %0
  %11 = load %struct.student*, %struct.student** %2, align 8
  %12 = icmp ne %struct.student* %11, null
  br i1 %12, label %13, label %28

13:                                               ; preds = %10
  %14 = load %struct.student*, %struct.student** %2, align 8
  %15 = getelementptr inbounds %struct.student, %struct.student* %14, i32 0, i32 3
  %16 = load i32, i32* %15, align 8
  %17 = load i32, i32* %6, align 4
  %18 = icmp sgt i32 %16, %17
  br i1 %18, label %19, label %24

19:                                               ; preds = %13
  %20 = load %struct.student*, %struct.student** %2, align 8
  %21 = getelementptr inbounds %struct.student, %struct.student* %20, i32 0, i32 3
  %22 = load i32, i32* %21, align 8
  store i32 %22, i32* %6, align 4
  %23 = load %struct.student*, %struct.student** %2, align 8
  store %struct.student* %23, %struct.student** %3, align 8
  br label %24

24:                                               ; preds = %19, %13
  %25 = load %struct.student*, %struct.student** %2, align 8
  %26 = getelementptr inbounds %struct.student, %struct.student* %25, i32 0, i32 4
  %27 = load %struct.student*, %struct.student** %26, align 8
  store %struct.student* %27, %struct.student** %2, align 8
  br label %10

28:                                               ; preds = %10
  %29 = load %struct.student*, %struct.student** %1, align 8
  store %struct.student* %29, %struct.student** %2, align 8
  store i32 0, i32* %6, align 4
  br label %30

30:                                               ; preds = %48, %28
  %31 = load %struct.student*, %struct.student** %2, align 8
  %32 = icmp ne %struct.student* %31, null
  br i1 %32, label %33, label %52

33:                                               ; preds = %30
  %34 = load %struct.student*, %struct.student** %2, align 8
  %35 = getelementptr inbounds %struct.student, %struct.student* %34, i32 0, i32 3
  %36 = load i32, i32* %35, align 8
  %37 = load i32, i32* %6, align 4
  %38 = icmp sgt i32 %36, %37
  br i1 %38, label %39, label %48

39:                                               ; preds = %33
  %40 = load %struct.student*, %struct.student** %2, align 8
  %41 = load %struct.student*, %struct.student** %3, align 8
  %42 = icmp ne %struct.student* %40, %41
  br i1 %42, label %43, label %48

43:                                               ; preds = %39
  %44 = load %struct.student*, %struct.student** %2, align 8
  %45 = getelementptr inbounds %struct.student, %struct.student* %44, i32 0, i32 3
  %46 = load i32, i32* %45, align 8
  store i32 %46, i32* %6, align 4
  %47 = load %struct.student*, %struct.student** %2, align 8
  store %struct.student* %47, %struct.student** %4, align 8
  br label %48

48:                                               ; preds = %43, %39, %33
  %49 = load %struct.student*, %struct.student** %2, align 8
  %50 = getelementptr inbounds %struct.student, %struct.student* %49, i32 0, i32 4
  %51 = load %struct.student*, %struct.student** %50, align 8
  store %struct.student* %51, %struct.student** %2, align 8
  br label %30

52:                                               ; preds = %30
  %53 = load %struct.student*, %struct.student** %1, align 8
  store %struct.student* %53, %struct.student** %2, align 8
  store i32 0, i32* %6, align 4
  br label %54

54:                                               ; preds = %76, %52
  %55 = load %struct.student*, %struct.student** %2, align 8
  %56 = icmp ne %struct.student* %55, null
  br i1 %56, label %57, label %80

57:                                               ; preds = %54
  %58 = load %struct.student*, %struct.student** %2, align 8
  %59 = getelementptr inbounds %struct.student, %struct.student* %58, i32 0, i32 3
  %60 = load i32, i32* %59, align 8
  %61 = load i32, i32* %6, align 4
  %62 = icmp sgt i32 %60, %61
  br i1 %62, label %63, label %76

63:                                               ; preds = %57
  %64 = load %struct.student*, %struct.student** %2, align 8
  %65 = load %struct.student*, %struct.student** %3, align 8
  %66 = icmp ne %struct.student* %64, %65
  br i1 %66, label %67, label %76

67:                                               ; preds = %63
  %68 = load %struct.student*, %struct.student** %2, align 8
  %69 = load %struct.student*, %struct.student** %4, align 8
  %70 = icmp ne %struct.student* %68, %69
  br i1 %70, label %71, label %76

71:                                               ; preds = %67
  %72 = load %struct.student*, %struct.student** %2, align 8
  %73 = getelementptr inbounds %struct.student, %struct.student* %72, i32 0, i32 3
  %74 = load i32, i32* %73, align 8
  store i32 %74, i32* %6, align 4
  %75 = load %struct.student*, %struct.student** %2, align 8
  store %struct.student* %75, %struct.student** %5, align 8
  br label %76

76:                                               ; preds = %71, %67, %63, %57
  %77 = load %struct.student*, %struct.student** %2, align 8
  %78 = getelementptr inbounds %struct.student, %struct.student* %77, i32 0, i32 4
  %79 = load %struct.student*, %struct.student** %78, align 8
  store %struct.student* %79, %struct.student** %2, align 8
  br label %54

80:                                               ; preds = %54
  %81 = load %struct.student*, %struct.student** %3, align 8
  %82 = getelementptr inbounds %struct.student, %struct.student* %81, i32 0, i32 0
  %83 = load i64, i64* %82, align 8
  %84 = load %struct.student*, %struct.student** %3, align 8
  %85 = getelementptr inbounds %struct.student, %struct.student* %84, i32 0, i32 3
  %86 = load i32, i32* %85, align 8
  %87 = call i32 (i8*, ...) @printf(i8* getelementptr inbounds ([7 x i8], [7 x i8]* @.str.1, i64 0, i64 0), i64 %83, i32 %86)
  %88 = load %struct.student*, %struct.student** %4, align 8
  %89 = getelementptr inbounds %struct.student, %struct.student* %88, i32 0, i32 0
  %90 = load i64, i64* %89, align 8
  %91 = load %struct.student*, %struct.student** %4, align 8
  %92 = getelementptr inbounds %struct.student, %struct.student* %91, i32 0, i32 3
  %93 = load i32, i32* %92, align 8
  %94 = call i32 (i8*, ...) @printf(i8* getelementptr inbounds ([7 x i8], [7 x i8]* @.str.1, i64 0, i64 0), i64 %90, i32 %93)
  %95 = load %struct.student*, %struct.student** %5, align 8
  %96 = getelementptr inbounds %struct.student, %struct.student* %95, i32 0, i32 0
  %97 = load i64, i64* %96, align 8
  %98 = load %struct.student*, %struct.student** %5, align 8
  %99 = getelementptr inbounds %struct.student, %struct.student* %98, i32 0, i32 3
  %100 = load i32, i32* %99, align 8
  %101 = call i32 (i8*, ...) @printf(i8* getelementptr inbounds ([7 x i8], [7 x i8]* @.str.1, i64 0, i64 0), i64 %97, i32 %100)
  ret void
}

declare dso_local i32 @__isoc99_scanf(i8*, ...) #1

declare dso_local i32 @printf(i8*, ...) #1

; Function Attrs: noinline nounwind uwtable
define dso_local %struct.student* @creat() #0 {
  %1 = alloca %struct.student*, align 8
  %2 = alloca %struct.student*, align 8
  %3 = alloca %struct.student*, align 8
  %4 = alloca i32, align 4
  store %struct.student* null, %struct.student** %1, align 8
  %5 = call noalias i8* @malloc(i64 100) #3
  %6 = bitcast i8* %5 to %struct.student*
  store %struct.student* %6, %struct.student** %3, align 8
  store %struct.student* %6, %struct.student** %2, align 8
  store i32 0, i32* %4, align 4
  br label %7

7:                                                ; preds = %42, %0
  %8 = load i32, i32* %4, align 4
  %9 = sext i32 %8 to i64
  %10 = load i64, i64* @n, align 8
  %11 = sub nsw i64 %10, 1
  %12 = icmp sle i64 %9, %11
  br i1 %12, label %13, label %45

13:                                               ; preds = %7
  %14 = load %struct.student*, %struct.student** %2, align 8
  %15 = getelementptr inbounds %struct.student, %struct.student* %14, i32 0, i32 0
  %16 = load %struct.student*, %struct.student** %2, align 8
  %17 = getelementptr inbounds %struct.student, %struct.student* %16, i32 0, i32 1
  %18 = load %struct.student*, %struct.student** %2, align 8
  %19 = getelementptr inbounds %struct.student, %struct.student* %18, i32 0, i32 2
  %20 = call i32 (i8*, ...) @__isoc99_scanf(i8* getelementptr inbounds ([8 x i8], [8 x i8]* @.str.2, i64 0, i64 0), i64* %15, i32* %17, i32* %19)
  %21 = load %struct.student*, %struct.student** %2, align 8
  %22 = getelementptr inbounds %struct.student, %struct.student* %21, i32 0, i32 1
  %23 = load i32, i32* %22, align 8
  %24 = load %struct.student*, %struct.student** %2, align 8
  %25 = getelementptr inbounds %struct.student, %struct.student* %24, i32 0, i32 2
  %26 = load i32, i32* %25, align 4
  %27 = add nsw i32 %23, %26
  %28 = load %struct.student*, %struct.student** %2, align 8
  %29 = getelementptr inbounds %struct.student, %struct.student* %28, i32 0, i32 3
  store i32 %27, i32* %29, align 8
  %30 = load i32, i32* %4, align 4
  %31 = icmp eq i32 %30, 0
  br i1 %31, label %32, label %34

32:                                               ; preds = %13
  %33 = load %struct.student*, %struct.student** %2, align 8
  store %struct.student* %33, %struct.student** %1, align 8
  br label %38

34:                                               ; preds = %13
  %35 = load %struct.student*, %struct.student** %2, align 8
  %36 = load %struct.student*, %struct.student** %3, align 8
  %37 = getelementptr inbounds %struct.student, %struct.student* %36, i32 0, i32 4
  store %struct.student* %35, %struct.student** %37, align 8
  br label %38

38:                                               ; preds = %34, %32
  %39 = load %struct.student*, %struct.student** %2, align 8
  store %struct.student* %39, %struct.student** %3, align 8
  %40 = call noalias i8* @malloc(i64 100) #3
  %41 = bitcast i8* %40 to %struct.student*
  store %struct.student* %41, %struct.student** %2, align 8
  br label %42

42:                                               ; preds = %38
  %43 = load i32, i32* %4, align 4
  %44 = add nsw i32 %43, 1
  store i32 %44, i32* %4, align 4
  br label %7

45:                                               ; preds = %7
  %46 = load %struct.student*, %struct.student** %3, align 8
  %47 = getelementptr inbounds %struct.student, %struct.student* %46, i32 0, i32 4
  store %struct.student* null, %struct.student** %47, align 8
  %48 = load %struct.student*, %struct.student** %1, align 8
  ret %struct.student* %48
}

; Function Attrs: nounwind
declare dso_local noalias i8* @malloc(i64) #2


!llvm.module.flags = !{!0}
!llvm.ident = !{!1}

!0 = !{i32 1, !"wchar_size", i32 4}
!1 = !{!"clang version 10.0.0-4ubuntu1 "}
